target datalayout = "e-m:e-p270:32:32-p271:32:32-p272:64:64-i64:64-i128:128-f80:128-n8:16:32:64-S128"
target triple = "x86_64-pc-linux-gnu"

%struct.b2ShapeId = type { i32, i16, i16 }
%struct.b2Vec2 = type { float, float }
%struct.b2ChainShapeArray = type { ptr, i32, i32 }
%struct.b2ShapeArray = type { ptr, i32, i32 }
%struct.b2Filter = type { i64, i64, i32 }
%struct.b2Shape = type { i32, i32, i32, i32, i32, i32, float, float, float, float, float, i32, %struct.b2AABB, %struct.b2AABB, %struct.b2Vec2, i32, %struct.b2Filter, ptr, i32, %union.anon.0, i16, i8, i8, i8, i8 }
%struct.b2AABB = type { %struct.b2Vec2, %struct.b2Vec2 }
%union.anon.0 = type { %struct.b2Polygon }
%struct.b2Polygon = type { [8 x %struct.b2Vec2], [8 x %struct.b2Vec2], %struct.b2Vec2, float, i32 }
%struct.b2World = type { %struct.b2ArenaAllocator, %struct.b2BroadPhase, %struct.b2ConstraintGraph, %struct.b2IdPool, %struct.b2BodyArray, %struct.b2IdPool, %struct.b2SolverSetArray, %struct.b2IdPool, %struct.b2JointArray, %struct.b2IdPool, %struct.b2ContactArray, %struct.b2IdPool, %struct.b2IslandArray, %struct.b2IdPool, %struct.b2IdPool, %struct.b2ShapeArray, %struct.b2ChainShapeArray, %struct.b2SensorArray, %struct.b2TaskContextArray, %struct.b2SensorTaskContextArray, %struct.b2BodyMoveEventArray, %struct.b2SensorBeginTouchEventArray, %struct.b2ContactBeginTouchEventArray, [2 x %struct.b2SensorEndTouchEventArray], [2 x %struct.b2ContactEndTouchEventArray], i32, %struct.b2ContactHitEventArray, %struct.b2BitSet, %struct.b2BitSet, %struct.b2BitSet, i64, i32, %struct.b2Vec2, float, float, float, float, float, float, float, float, ptr, ptr, i16, %struct.b2Profile, ptr, ptr, ptr, ptr, i32, ptr, ptr, ptr, ptr, ptr, float, i32, i32, i16, i8, i8, i8, i8, i8, i8 }
%struct.b2ArenaAllocator = type { ptr, i32, i32, i32, i32, %struct.b2ArenaEntryArray }
%struct.b2ArenaEntryArray = type { ptr, i32, i32 }
%struct.b2BroadPhase = type { [3 x %struct.b2DynamicTree], i32, %struct.b2HashSet, %struct.b2IntArray, ptr, ptr, i32, %struct.b2AtomicInt, %struct.b2HashSet }
%struct.b2DynamicTree = type { ptr, i32, i32, i32, i32, i32, ptr, ptr, ptr, ptr, i32 }
%struct.b2IntArray = type { ptr, i32, i32 }
%struct.b2AtomicInt = type { i32 }
%struct.b2HashSet = type { ptr, i32, i32 }
%struct.b2ConstraintGraph = type { [12 x %struct.b2GraphColor] }
%struct.b2GraphColor = type { %struct.b2BitSet, %struct.b2ContactSimArray, %struct.b2JointSimArray, %union.anon }
%struct.b2ContactSimArray = type { ptr, i32, i32 }
%struct.b2JointSimArray = type { ptr, i32, i32 }
%union.anon = type { ptr }
%struct.b2BodyArray = type { ptr, i32, i32 }
%struct.b2SolverSetArray = type { ptr, i32, i32 }
%struct.b2JointArray = type { ptr, i32, i32 }
%struct.b2ContactArray = type { ptr, i32, i32 }
%struct.b2IslandArray = type { ptr, i32, i32 }
%struct.b2IdPool = type { %struct.b2IntArray, i32 }
%struct.b2SensorArray = type { ptr, i32, i32 }
%struct.b2TaskContextArray = type { ptr, i32, i32 }
%struct.b2SensorTaskContextArray = type { ptr, i32, i32 }
%struct.b2BodyMoveEventArray = type { ptr, i32, i32 }
%struct.b2SensorBeginTouchEventArray = type { ptr, i32, i32 }
%struct.b2ContactBeginTouchEventArray = type { ptr, i32, i32 }
%struct.b2SensorEndTouchEventArray = type { ptr, i32, i32 }
%struct.b2ContactEndTouchEventArray = type { ptr, i32, i32 }
%struct.b2ContactHitEventArray = type { ptr, i32, i32 }
%struct.b2BitSet = type { ptr, i32, i32 }
%struct.b2Profile = type { float, float, float, float, float, float, float, float, float, float, float, float, float, float, float, float, float, float, float, float, float, float }

; Function Attrs: inlinehint nounwind uwtable
define internal ptr @b2ShapeArray_Get(ptr noundef %0, i32 noundef %1) #7 {
  %3 = alloca ptr, align 8
  %4 = alloca i32, align 4
  store ptr %0, ptr %3, align 8, !tbaa !12
  store i32 %1, ptr %4, align 4, !tbaa !3
  %5 = load ptr, ptr %3, align 8, !tbaa !12
  %6 = getelementptr inbounds nuw %struct.b2ShapeArray, ptr %5, i32 0, i32 0
  %7 = load ptr, ptr %6, align 8, !tbaa !14
  %8 = load i32, ptr %4, align 4, !tbaa !3
  %9 = sext i32 %8 to i64
  %10 = getelementptr inbounds %struct.b2Shape, ptr %7, i64 %9
  ret ptr %10
}

; Function Attrs: nounwind uwtable
define internal ptr @b2GetShape(ptr noundef %0, i64 %1) #0 {
  %3 = alloca %struct.b2ShapeId, align 4
  %4 = alloca ptr, align 8
  %5 = alloca i32, align 4
  %6 = alloca ptr, align 8
  store i64 %1, ptr %3, align 4
  store ptr %0, ptr %4, align 8, !tbaa !26
  call void @llvm.lifetime.start.p0(i64 4, ptr %5) #9
  %7 = getelementptr inbounds nuw %struct.b2ShapeId, ptr %3, i32 0, i32 0
  %8 = load i32, ptr %7, align 4, !tbaa !28
  %9 = sub nsw i32 %8, 1
  store i32 %9, ptr %5, align 4, !tbaa !3
  call void @llvm.lifetime.start.p0(i64 8, ptr %6) #9
  %10 = load ptr, ptr %4, align 8, !tbaa !26
  %11 = getelementptr inbounds nuw %struct.b2World, ptr %10, i32 0, i32 15
  %12 = load i32, ptr %5, align 4, !tbaa !3
  %13 = call ptr @b2ShapeArray_Get(ptr noundef %11, i32 noundef %12)
  store ptr %13, ptr %6, align 8, !tbaa !34
  %14 = load ptr, ptr %6, align 8, !tbaa !34
  call void @llvm.lifetime.end.p0(i64 8, ptr %6) #9
  call void @llvm.lifetime.end.p0(i64 4, ptr %5) #9
  ret ptr %14
}

; Function Attrs: nounwind uwtable
define void @b2Shape_SetFilter(i64 %0, ptr noundef byval(%struct.b2Filter) align 8 %1) #0 {
  %3 = alloca %struct.b2ShapeId, align 4
  %4 = alloca ptr, align 8
  %5 = alloca i32, align 4
  %6 = alloca ptr, align 8
  %7 = alloca i8, align 1
  %8 = alloca i8, align 1
  store i64 %0, ptr %3, align 4
  call void @llvm.lifetime.start.p0(i64 8, ptr %4) #9
  %9 = getelementptr inbounds nuw %struct.b2ShapeId, ptr %3, i32 0, i32 1
  %10 = load i16, ptr %9, align 4, !tbaa !30
  %11 = zext i16 %10 to i32
  %12 = call ptr @b2GetWorldLocked(i32 noundef %11)
  store ptr %12, ptr %4, align 8, !tbaa !26
  %13 = load ptr, ptr %4, align 8, !tbaa !26
  %14 = icmp eq ptr %13, null
  br i1 %14, label %15, label %16

15:                                               ; preds = %2
  store i32 1, ptr %5, align 4
  br label %62

16:                                               ; preds = %2
  call void @llvm.lifetime.start.p0(i64 8, ptr %6) #9
  %17 = load ptr, ptr %4, align 8, !tbaa !26
  %18 = load i64, ptr %3, align 4
  %19 = call ptr @b2GetShape(ptr noundef %17, i64 %18)
  store ptr %19, ptr %6, align 8, !tbaa !34
  %20 = getelementptr inbounds nuw %struct.b2Filter, ptr %1, i32 0, i32 1
  %21 = load i64, ptr %20, align 8, !tbaa !273
  %22 = load ptr, ptr %6, align 8, !tbaa !34
  %23 = getelementptr inbounds nuw %struct.b2Shape, ptr %22, i32 0, i32 16
  %24 = getelementptr inbounds nuw %struct.b2Filter, ptr %23, i32 0, i32 1
  %25 = load i64, ptr %24, align 8, !tbaa !274
  %26 = icmp eq i64 %21, %25
  br i1 %26, label %27, label %44

27:                                               ; preds = %16
  %28 = getelementptr inbounds nuw %struct.b2Filter, ptr %1, i32 0, i32 0
  %29 = load i64, ptr %28, align 8, !tbaa !275
  %30 = load ptr, ptr %6, align 8, !tbaa !34
  %31 = getelementptr inbounds nuw %struct.b2Shape, ptr %30, i32 0, i32 16
  %32 = getelementptr inbounds nuw %struct.b2Filter, ptr %31, i32 0, i32 0
  %33 = load i64, ptr %32, align 8, !tbaa !263
  %34 = icmp eq i64 %29, %33
  br i1 %34, label %35, label %44

35:                                               ; preds = %27
  %36 = getelementptr inbounds nuw %struct.b2Filter, ptr %1, i32 0, i32 2
  %37 = load i32, ptr %36, align 8, !tbaa !276
  %38 = load ptr, ptr %6, align 8, !tbaa !34
  %39 = getelementptr inbounds nuw %struct.b2Shape, ptr %38, i32 0, i32 16
  %40 = getelementptr inbounds nuw %struct.b2Filter, ptr %39, i32 0, i32 2
  %41 = load i32, ptr %40, align 8, !tbaa !277
  %42 = icmp eq i32 %37, %41
  br i1 %42, label %43, label %44

43:                                               ; preds = %35
  store i32 1, ptr %5, align 4
  br label %61

44:                                               ; preds = %35, %27, %16
  call void @llvm.lifetime.start.p0(i64 1, ptr %7) #9
  %45 = getelementptr inbounds nuw %struct.b2Filter, ptr %1, i32 0, i32 0
  %46 = load i64, ptr %45, align 8, !tbaa !275
  %47 = load ptr, ptr %6, align 8, !tbaa !34
  %48 = getelementptr inbounds nuw %struct.b2Shape, ptr %47, i32 0, i32 16
  %49 = getelementptr inbounds nuw %struct.b2Filter, ptr %48, i32 0, i32 0
  %50 = load i64, ptr %49, align 8, !tbaa !263
  %51 = icmp ne i64 %46, %50
  %52 = zext i1 %51 to i8
  store i8 %52, ptr %7, align 1, !tbaa !63
  %53 = load ptr, ptr %6, align 8, !tbaa !34
  %54 = getelementptr inbounds nuw %struct.b2Shape, ptr %53, i32 0, i32 16
  call void @llvm.memcpy.p0.p0.i64(ptr align 8 %54, ptr align 8 %1, i64 24, i1 false), !tbaa.struct !163
  call void @llvm.lifetime.start.p0(i64 1, ptr %8) #9
  store i8 1, ptr %8, align 1, !tbaa !63
  %55 = load ptr, ptr %4, align 8, !tbaa !26
  %56 = load ptr, ptr %6, align 8, !tbaa !34
  %57 = load i8, ptr %8, align 1, !tbaa !63, !range !41, !noundef !42
  %58 = trunc i8 %57 to i1
  %59 = load i8, ptr %7, align 1, !tbaa !63, !range !41, !noundef !42
  %60 = trunc i8 %59 to i1
  call void @b2ResetProxy(ptr noundef %55, ptr noundef %56, i1 noundef zeroext %58, i1 noundef zeroext %60)
  call void @llvm.lifetime.end.p0(i64 1, ptr %8) #9
  call void @llvm.lifetime.end.p0(i64 1, ptr %7) #9
  store i32 0, ptr %5, align 4
  br label %61

61:                                               ; preds = %44, %43
  call void @llvm.lifetime.end.p0(i64 8, ptr %6) #9
  br label %62

62:                                               ; preds = %61, %15
  call void @llvm.lifetime.end.p0(i64 8, ptr %4) #9
  %63 = load i32, ptr %5, align 4
  switch i32 %63, label %65 [
    i32 0, label %64
    i32 1, label %64
  ]

64:                                               ; preds = %62, %62
  ret void

65:                                               ; preds = %62
  unreachable
}