; Function Attrs: nounwind uwtable
define void @b2Shape_SetFilter(i64 %0, ptr noundef readonly byval(%struct.b2Filter) align 8 captures(none) %1) local_unnamed_addr #0 {
  %.sroa.2.0.extract.shift = lshr i64 %0, 32
  %3 = trunc nuw i64 %.sroa.2.0.extract.shift to i32
  %4 = and i32 %3, 65535
  %5 = tail call ptr @b2GetWorldLocked(i32 noundef %4) #10
  %6 = icmp eq ptr %5, null
  br i1 %6, label %27, label %7

7:                                                ; preds = %2
  %8 = getelementptr i8, ptr %5, i64 1256
  %.val = load ptr, ptr %8, align 8, !tbaa !14
  %9 = shl i64 %0, 32
  %sext.i = add i64 %9, -4294967296
  %10 = ashr exact i64 %sext.i, 32
  %11 = getelementptr inbounds %struct.b2Shape, ptr %.val, i64 %10
  %12 = getelementptr inbounds nuw i8, ptr %1, i64 8
  %13 = load i64, ptr %12, align 8, !tbaa !213
  %14 = getelementptr inbounds nuw i8, ptr %11, i64 96
  %15 = getelementptr inbounds nuw i8, ptr %11, i64 104
  %16 = load i64, ptr %15, align 8, !tbaa !214
  %17 = icmp eq i64 %13, %16
  %.pre = load i64, ptr %1, align 8, !tbaa !215
  %.pre10 = load i64, ptr %14, align 8, !tbaa !207
  %18 = icmp eq i64 %.pre, %.pre10
  %or.cond = select i1 %17, i1 %18, i1 false
  br i1 %or.cond, label %19, label %25

19:                                               ; preds = %7
  %20 = getelementptr inbounds nuw i8, ptr %1, i64 16
  %21 = load i32, ptr %20, align 8, !tbaa !216
  %22 = getelementptr inbounds nuw i8, ptr %11, i64 112
  %23 = load i32, ptr %22, align 8, !tbaa !217
  %24 = icmp eq i32 %21, %23
  br i1 %24, label %27, label %25

25:                                               ; preds = %19, %7
  %26 = icmp ne i64 %.pre, %.pre10
  call void @llvm.memcpy.p0.p0.i64(ptr noundef nonnull align 8 dereferenceable(24) %14, ptr noundef nonnull align 8 dereferenceable(24) %1, i64 24, i1 false), !tbaa.struct !133
  tail call fastcc void @b2ResetProxy(ptr noundef %5, ptr noundef nonnull %11, i1 noundef zeroext %26)
  br label %27

27:                                               ; preds = %25, %19, %2
  ret void
}